; Function Attrs: mustprogress nofree norecurse nosync nounwind willreturn memory(write, argmem: readwrite, inaccessiblemem: none) uwtable
define hidden void @_ZN5frame28interpreter_frame_set_localsEPl(ptr nocapture noundef nonnull readonly align 8 dereferenceable(56) %0, ptr noundef %1) local_unnamed_addr #3 align 2 {
  %3 = getelementptr inbounds i8, ptr %0, i64 40
  %4 = load ptr, ptr %3, align 8
  %5 = ptrtoint ptr %1 to i64
  %6 = ptrtoint ptr %4 to i64
  %7 = sub i64 %5, %6
  %8 = ashr exact i64 %7, 3
  %9 = getelementptr inbounds i8, ptr %4, i64 -56
  store i64 %8, ptr %9, align 8
  ret void
}